target datalayout = "e-m:e-p270:32:32-p271:32:32-p272:64:64-i64:64-i128:128-f80:128-n8:16:32:64-S128"
target triple = "x86_64-pc-linux-gnu"

%struct.hs_database = type { i32, i32, i32, i64, i32, i32, i32, i32, [16 x i32], [0 x i8] }
%struct.RoseEngine = type { i8, i8, i8, i8, i8, i8, i8, i8, i8, i32, i32, i32, i32, i32, i32, i32, i32, i32, i32, i32, i32, i32, i32, i32, i32, i32, i32, i32, i32, i32, i32, i32, i32, i32, i32, i32, i32, i32, i32, i32, i32, i32, i32, i32, i32, i32, i32, i32, i32, i32, i32, i32, i32, i32, i32, i32, i32, i32, i32, i32, i32, i32, i32, i32, i32, i32, i64, i64, i32, i32, i32, i32, i32, i32, i32, %struct.RoseStateOffsets, %struct.RoseBoundaryReports, i32, i32, i32, i32, i32, i32, i32, i32, i32, i32, i32, i32, %struct.scatter_full_plan }
%struct.RoseStateOffsets = type { i32, i32, i32, i32, i32, i32, i32, i32, i32, i32, i32, i32, i32, i32, i32, i32, i32, i32, i32, i32, i32, i32, i32 }
%struct.RoseBoundaryReports = type { i32, i32, i32 }
%struct.scatter_full_plan = type { i32, i32, i32, i32, i32, i32, i32, i32 }

; Function Attrs: alwaysinline nounwind uwtable
define internal ptr @hs_get_bytecode(ptr noundef %0) #1 {
  %2 = alloca ptr, align 8
  store ptr %0, ptr %2, align 8
  %3 = load ptr, ptr %2, align 8
  %4 = load ptr, ptr %2, align 8
  %5 = getelementptr inbounds nuw %struct.hs_database, ptr %4, i32 0, i32 7
  %6 = load i32, ptr %5, align 4
  %7 = zext i32 %6 to i64
  %8 = getelementptr inbounds nuw i8, ptr %3, i64 %7
  ret ptr %8
}

; Function Attrs: alwaysinline nounwind uwtable
define internal i32 @db_correctly_aligned(ptr noundef %0) #1 {
  %2 = alloca ptr, align 8
  store ptr %0, ptr %2, align 8
  %3 = load ptr, ptr %2, align 8
  %4 = ptrtoint ptr %3 to i64
  %5 = and i64 %4, 7
  %6 = icmp eq i64 %5, 0
  %7 = zext i1 %6 to i32
  ret i32 %7
}

; Function Attrs: nounwind uwtable
define dso_local i32 @hs_database_info(ptr noundef %0, ptr noundef %1) #0 {
  %3 = alloca i32, align 4
  %4 = alloca ptr, align 8
  %5 = alloca ptr, align 8
  %6 = alloca i64, align 8
  %7 = alloca ptr, align 8
  store ptr %0, ptr %4, align 8
  store ptr %1, ptr %5, align 8
  %8 = load ptr, ptr %5, align 8
  %9 = icmp ne ptr %8, null
  br i1 %9, label %11, label %10

10:                                               ; preds = %2
  store i32 -1, ptr %3, align 4
  br label %40

11:                                               ; preds = %2
  %12 = load ptr, ptr %5, align 8
  store ptr null, ptr %12, align 8
  %13 = load ptr, ptr %4, align 8
  %14 = icmp ne ptr %13, null
  br i1 %14, label %15, label %24

15:                                               ; preds = %11
  %16 = load ptr, ptr %4, align 8
  %17 = call i32 @db_correctly_aligned(ptr noundef %16)
  %18 = icmp ne i32 %17, 0
  br i1 %18, label %19, label %24

19:                                               ; preds = %15
  %20 = load ptr, ptr %4, align 8
  %21 = getelementptr inbounds nuw %struct.hs_database, ptr %20, i32 0, i32 0
  %22 = load i32, ptr %21, align 8
  %23 = icmp ne i32 %22, -606348325
  br i1 %23, label %24, label %25

24:                                               ; preds = %19, %15, %11
  store i32 -1, ptr %3, align 4
  br label %40

25:                                               ; preds = %19
  call void @llvm.lifetime.start.p0(i64 8, ptr %6) #8
  %26 = load ptr, ptr %4, align 8
  %27 = getelementptr inbounds nuw %struct.hs_database, ptr %26, i32 0, i32 3
  %28 = load i64, ptr %27, align 8
  store i64 %28, ptr %6, align 8
  call void @llvm.lifetime.start.p0(i64 8, ptr %7) #8
  %29 = load ptr, ptr %4, align 8
  %30 = call ptr @hs_get_bytecode(ptr noundef %29)
  store ptr %30, ptr %7, align 8
  %31 = load ptr, ptr %5, align 8
  %32 = load ptr, ptr %4, align 8
  %33 = getelementptr inbounds nuw %struct.hs_database, ptr %32, i32 0, i32 1
  %34 = load i32, ptr %33, align 4
  %35 = load i64, ptr %6, align 8
  %36 = load ptr, ptr %7, align 8
  %37 = getelementptr inbounds nuw %struct.RoseEngine, ptr %36, i32 0, i32 9
  %38 = load i32, ptr %37, align 4
  %39 = call i32 @print_database_string(ptr noundef %31, i32 noundef %34, i64 noundef %35, i32 noundef %38)
  store i32 %39, ptr %3, align 4
  call void @llvm.lifetime.end.p0(i64 8, ptr %7) #8
  call void @llvm.lifetime.end.p0(i64 8, ptr %6) #8
  br label %40

40:                                               ; preds = %25, %24, %10
  %41 = load i32, ptr %3, align 4
  ret i32 %41
}