; Function Attrs: nounwind uwtable
define dso_local range(i32 -9, 1) i32 @hs_database_info(ptr noundef %0, ptr noundef writeonly %1) local_unnamed_addr #0 {
  %.not = icmp eq ptr %1, null
  br i1 %.not, label %20, label %3

3:                                                ; preds = %2
  store ptr null, ptr %1, align 8
  %.not13 = icmp ne ptr %0, null
  %4 = ptrtoint ptr %0 to i64
  %5 = and i64 %4, 7
  %.not16 = icmp eq i64 %5, 0
  %or.cond = and i1 %.not13, %.not16
  br i1 %or.cond, label %6, label %20

6:                                                ; preds = %3
  %7 = load i32, ptr %0, align 8
  %.not15 = icmp eq i32 %7, -606348325
  br i1 %.not15, label %8, label %20

8:                                                ; preds = %6
  %9 = getelementptr inbounds nuw i8, ptr %0, i64 16
  %10 = load i64, ptr %9, align 8
  %11 = getelementptr inbounds nuw i8, ptr %0, i64 36
  %12 = load i32, ptr %11, align 4
  %13 = zext i32 %12 to i64
  %14 = getelementptr inbounds nuw i8, ptr %0, i64 %13
  %15 = getelementptr inbounds nuw i8, ptr %0, i64 4
  %16 = load i32, ptr %15, align 4
  %17 = getelementptr inbounds nuw i8, ptr %14, i64 12
  %18 = load i32, ptr %17, align 4
  %19 = tail call fastcc i32 @print_database_string(ptr noundef %1, i32 noundef %16, i64 noundef %10, i32 noundef %18)
  br label %20

20:                                               ; preds = %3, %6, %2, %8
  %.0 = phi i32 [ %19, %8 ], [ -1, %2 ], [ -1, %6 ], [ -1, %3 ]
  ret i32 %.0
}